; Function Attrs: mustprogress uwtable
define noundef i32 @_ZN4toku8locktree16try_acquire_lockEbmPK10__toku_dbtS3_PNS_9txnid_setEb(ptr noundef nonnull align 8 dereferenceable(400) %0, i1 noundef zeroext %1, i64 noundef %2, ptr noundef %3, ptr noundef %4, ptr noundef %5, i1 noundef zeroext %6) local_unnamed_addr #0 align 2 {
  %8 = alloca %"class.toku::concurrent_tree::locked_keyrange", align 8
  %9 = load ptr, ptr %0, align 8, !tbaa !4
  %10 = icmp eq ptr %9, null
  br i1 %10, label %.thread, label %11

11:                                               ; preds = %7
  %12 = tail call noundef i32 @_ZN4toku16locktree_manager30check_current_lock_constraintsEb(ptr noundef nonnull align 8 dereferenceable(392) %9, i1 noundef zeroext %6)
  %13 = icmp eq i32 %12, 0
  br i1 %13, label %.thread, label %19

.thread:                                          ; preds = %7, %11
  call void @llvm.lifetime.start.p0(i64 104, ptr nonnull %8) #21
  %14 = getelementptr inbounds nuw i8, ptr %0, i64 64
  %15 = load ptr, ptr %14, align 8, !tbaa !44
  call void @_ZN4toku15concurrent_tree15locked_keyrange7prepareEPS0_(ptr noundef nonnull align 8 dereferenceable(104) %8, ptr noundef %15)
  %16 = call noundef zeroext i1 @_ZN4toku8locktree15sto_try_acquireEPvmPK10__toku_dbtS4_b(ptr noundef nonnull align 8 dereferenceable(400) %0, ptr noundef nonnull %8, i64 noundef %2, ptr noundef %3, ptr noundef %4, i1 noundef zeroext %1)
  br i1 %16, label %_ZN4toku8locktree12acquire_lockEbmPK10__toku_dbtS3_PNS_9txnid_setE.exit, label %17

17:                                               ; preds = %.thread
  %18 = call noundef i32 @_ZN4toku8locktree25acquire_lock_consolidatedEPvmPK10__toku_dbtS4_bPNS_9txnid_setE(ptr noundef nonnull align 8 dereferenceable(400) %0, ptr noundef nonnull %8, i64 noundef %2, ptr noundef %3, ptr noundef %4, i1 noundef zeroext %1, ptr noundef %5)
  br label %_ZN4toku8locktree12acquire_lockEbmPK10__toku_dbtS3_PNS_9txnid_setE.exit

_ZN4toku8locktree12acquire_lockEbmPK10__toku_dbtS3_PNS_9txnid_setE.exit: ; preds = %.thread, %17
  %.0.i = phi i32 [ 0, %.thread ], [ %18, %17 ]
  call void @_ZN4toku15concurrent_tree15locked_keyrange7releaseEv(ptr noundef nonnull align 8 dereferenceable(104) %8)
  call void @llvm.lifetime.end.p0(i64 104, ptr nonnull %8) #21
  br label %19

19:                                               ; preds = %_ZN4toku8locktree12acquire_lockEbmPK10__toku_dbtS3_PNS_9txnid_setE.exit, %11
  %.0 = phi i32 [ %.0.i, %_ZN4toku8locktree12acquire_lockEbmPK10__toku_dbtS3_PNS_9txnid_setE.exit ], [ %12, %11 ]
  ret i32 %.0
}